target datalayout = "e-m:e-p270:32:32-p271:32:32-p272:64:64-i64:64-i128:128-f80:128-n8:16:32:64-S128"
target triple = "x86_64-pc-linux-gnu"

%class.Node = type <{ ptr, ptr, ptr, i32, i32, i32, i32, i32, i32, i32, [4 x i8] }>
%class.Node_List = type <{ %class.Node_Array, i32, [4 x i8] }>
%class.Node_Array = type { ptr, i32, ptr }
%class.IdealLoopTree = type <{ ptr, ptr, ptr, ptr, ptr, ptr, i32, i32, %class.Node_List, i16, i8, [5 x i8], ptr, ptr, i8, [7 x i8] }>
%class.Predicates = type { ptr, %class.PredicateBlock, %class.PredicateBlock, %class.PredicateBlock, ptr }
%class.PredicateBlock = type { [8 x i8], %class.ParsePredicate, ptr }
%class.ParsePredicate = type { ptr, ptr, ptr }

@UseLoopPredicate = external global i8, align 1
@UseProfiledLoopPredicate = external global i8, align 1

; Function Attrs: mustprogress nounwind uwtable
define linkonce_odr hidden noundef ptr @_ZNK14ParsePredicate12success_projEv(ptr noundef nonnull align 8 dereferenceable(24) %0) #1 comdat align 2 {
  %2 = alloca ptr, align 8
  store ptr %0, ptr %2, align 8
  %3 = load ptr, ptr %2, align 8
  %4 = getelementptr inbounds %class.ParsePredicate, ptr %3, i32 0, i32 0
  %5 = load ptr, ptr %4, align 8
  ret ptr %5
}

; Function Attrs: mustprogress nounwind uwtable
define linkonce_odr hidden noundef zeroext i1 @_ZNK14ParsePredicate8is_validEv(ptr noundef nonnull align 8 dereferenceable(24) %0) #1 comdat align 2 {
  %2 = alloca ptr, align 8
  store ptr %0, ptr %2, align 8
  %3 = load ptr, ptr %2, align 8
  %4 = getelementptr inbounds %class.ParsePredicate, ptr %3, i32 0, i32 1
  %5 = load ptr, ptr %4, align 8
  %6 = icmp ne ptr %5, null
  ret i1 %6
}

; Function Attrs: mustprogress nounwind uwtable
define linkonce_odr hidden noundef ptr @_ZNK10Predicates20loop_predicate_blockEv(ptr noundef nonnull align 8 dereferenceable(136) %0) #1 comdat align 2 {
  %2 = alloca ptr, align 8
  store ptr %0, ptr %2, align 8
  %3 = load ptr, ptr %2, align 8
  %4 = getelementptr inbounds %class.Predicates, ptr %3, i32 0, i32 3
  ret ptr %4
}

; Function Attrs: mustprogress nounwind uwtable
define linkonce_odr hidden noundef ptr @_ZNK14PredicateBlock28parse_predicate_success_projEv(ptr noundef nonnull align 8 dereferenceable(40) %0) #1 comdat align 2 {
  %2 = alloca ptr, align 8
  store ptr %0, ptr %2, align 8
  %3 = load ptr, ptr %2, align 8
  %4 = getelementptr inbounds %class.PredicateBlock, ptr %3, i32 0, i32 1
  %5 = call noundef ptr @_ZNK14ParsePredicate12success_projEv(ptr noundef nonnull align 8 dereferenceable(24) %4)
  ret ptr %5
}

; Function Attrs: mustprogress nounwind uwtable
define linkonce_odr hidden noundef zeroext i1 @_ZNK14PredicateBlock19has_parse_predicateEv(ptr noundef nonnull align 8 dereferenceable(40) %0) #1 comdat align 2 {
  %2 = alloca ptr, align 8
  store ptr %0, ptr %2, align 8
  %3 = load ptr, ptr %2, align 8
  %4 = getelementptr inbounds %class.PredicateBlock, ptr %3, i32 0, i32 1
  %5 = call noundef zeroext i1 @_ZNK14ParsePredicate8is_validEv(ptr noundef nonnull align 8 dereferenceable(24) %4)
  ret i1 %5
}

; Function Attrs: mustprogress nounwind uwtable
define linkonce_odr hidden noundef ptr @_ZNK10Predicates29profiled_loop_predicate_blockEv(ptr noundef nonnull align 8 dereferenceable(136) %0) #1 comdat align 2 {
  %2 = alloca ptr, align 8
  store ptr %0, ptr %2, align 8
  %3 = load ptr, ptr %2, align 8
  %4 = getelementptr inbounds %class.Predicates, ptr %3, i32 0, i32 2
  ret ptr %4
}

; Function Attrs: mustprogress nounwind uwtable
define linkonce_odr hidden noundef ptr @_ZNK4Node2inEj(ptr noundef nonnull align 8 dereferenceable(52) %0, i32 noundef %1) #1 comdat align 2 {
  %3 = alloca ptr, align 8
  %4 = alloca i32, align 4
  store ptr %0, ptr %3, align 8
  store i32 %1, ptr %4, align 4
  %5 = load ptr, ptr %3, align 8
  %6 = getelementptr inbounds %class.Node, ptr %5, i32 0, i32 1
  %7 = load ptr, ptr %6, align 8
  %8 = load i32, ptr %4, align 4
  %9 = zext i32 %8 to i64
  %10 = getelementptr inbounds ptr, ptr %7, i64 %9
  %11 = load ptr, ptr %10, align 8
  ret ptr %11
}

; Function Attrs: mustprogress nounwind uwtable
define linkonce_odr hidden noundef ptr @_ZNK4Node7as_LoopEv(ptr noundef nonnull align 8 dereferenceable(52) %0) #1 comdat align 2 {
  %2 = alloca ptr, align 8
  store ptr %0, ptr %2, align 8
  %3 = load ptr, ptr %2, align 8
  ret ptr %3
}

; Function Attrs: mustprogress nounwind uwtable
define hidden void @_ZN14PhaseIdealLoop53collect_useful_template_assertion_predicates_for_loopEP13IdealLoopTreeR16Unique_Node_List(ptr noundef %0, ptr noundef nonnull align 8 dereferenceable(68) %1) #1 align 2 {
  %3 = alloca ptr, align 8
  %4 = alloca ptr, align 8
  %5 = alloca ptr, align 8
  %6 = alloca %class.Predicates, align 8
  %7 = alloca ptr, align 8
  %8 = alloca ptr, align 8
  %9 = alloca ptr, align 8
  %10 = alloca ptr, align 8
  store ptr %0, ptr %3, align 8
  store ptr %1, ptr %4, align 8
  %11 = load ptr, ptr %3, align 8
  %12 = getelementptr inbounds %class.IdealLoopTree, ptr %11, i32 0, i32 3
  %13 = load ptr, ptr %12, align 8
  %14 = call noundef ptr @_ZNK4Node7as_LoopEv(ptr noundef nonnull align 8 dereferenceable(52) %13)
  %15 = load ptr, ptr %14, align 8
  %16 = getelementptr inbounds ptr, ptr %15, i64 24
  %17 = load ptr, ptr %16, align 8
  %18 = call noundef ptr %17(ptr noundef nonnull align 8 dereferenceable(72) %14, i32 noundef 1)
  %19 = call noundef ptr @_ZNK4Node2inEj(ptr noundef nonnull align 8 dereferenceable(52) %18, i32 noundef 1)
  store ptr %19, ptr %5, align 8
  %20 = load ptr, ptr %5, align 8
  call void @_ZN10PredicatesC2EP4Node(ptr noundef nonnull align 8 dereferenceable(136) %6, ptr noundef %20)
  %21 = load i8, ptr @UseProfiledLoopPredicate, align 1
  %22 = trunc i8 %21 to i1
  br i1 %22, label %23, label %33

23:                                               ; preds = %2
  %24 = call noundef ptr @_ZNK10Predicates29profiled_loop_predicate_blockEv(ptr noundef nonnull align 8 dereferenceable(136) %6)
  store ptr %24, ptr %7, align 8
  %25 = load ptr, ptr %7, align 8
  %26 = call noundef zeroext i1 @_ZNK14PredicateBlock19has_parse_predicateEv(ptr noundef nonnull align 8 dereferenceable(40) %25)
  br i1 %26, label %27, label %32

27:                                               ; preds = %23
  %28 = load ptr, ptr %7, align 8
  %29 = call noundef ptr @_ZNK14PredicateBlock28parse_predicate_success_projEv(ptr noundef nonnull align 8 dereferenceable(40) %28)
  store ptr %29, ptr %8, align 8
  %30 = load ptr, ptr %8, align 8
  %31 = load ptr, ptr %4, align 8
  call void @_ZN14PhaseIdealLoop24get_assertion_predicatesEP4NodeR16Unique_Node_Listb(ptr noundef %30, ptr noundef nonnull align 8 dereferenceable(68) %31, i1 noundef zeroext true)
  br label %32

32:                                               ; preds = %27, %23
  br label %33

33:                                               ; preds = %32, %2
  %34 = load i8, ptr @UseLoopPredicate, align 1
  %35 = trunc i8 %34 to i1
  br i1 %35, label %36, label %46

36:                                               ; preds = %33
  %37 = call noundef ptr @_ZNK10Predicates20loop_predicate_blockEv(ptr noundef nonnull align 8 dereferenceable(136) %6)
  store ptr %37, ptr %9, align 8
  %38 = load ptr, ptr %9, align 8
  %39 = call noundef zeroext i1 @_ZNK14PredicateBlock19has_parse_predicateEv(ptr noundef nonnull align 8 dereferenceable(40) %38)
  br i1 %39, label %40, label %45

40:                                               ; preds = %36
  %41 = load ptr, ptr %9, align 8
  %42 = call noundef ptr @_ZNK14PredicateBlock28parse_predicate_success_projEv(ptr noundef nonnull align 8 dereferenceable(40) %41)
  store ptr %42, ptr %10, align 8
  %43 = load ptr, ptr %10, align 8
  %44 = load ptr, ptr %4, align 8
  call void @_ZN14PhaseIdealLoop24get_assertion_predicatesEP4NodeR16Unique_Node_Listb(ptr noundef %43, ptr noundef nonnull align 8 dereferenceable(68) %44, i1 noundef zeroext true)
  br label %45

45:                                               ; preds = %40, %36
  br label %46

46:                                               ; preds = %45, %33
  ret void
}