; Function Attrs: mustprogress nounwind uwtable
define hidden void @_ZN14PhaseIdealLoop53collect_useful_template_assertion_predicates_for_loopEP13IdealLoopTreeR16Unique_Node_List(ptr nocapture noundef readonly %0, ptr noundef nonnull align 8 dereferenceable(68) %1) local_unnamed_addr #0 align 2 {
  %3 = alloca %class.Predicates, align 8
  %4 = getelementptr inbounds i8, ptr %0, i64 24
  %5 = load ptr, ptr %4, align 8
  %6 = load ptr, ptr %5, align 8
  %7 = getelementptr inbounds i8, ptr %6, i64 192
  %8 = load ptr, ptr %7, align 8
  %9 = tail call noundef ptr %8(ptr noundef nonnull align 8 dereferenceable(72) %5, i32 noundef 1) #15
  %10 = getelementptr inbounds i8, ptr %9, i64 8
  %11 = load ptr, ptr %10, align 8
  %12 = getelementptr inbounds i8, ptr %11, i64 8
  %13 = load ptr, ptr %12, align 8
  call void @_ZN10PredicatesC2EP4Node(ptr noundef nonnull align 8 dereferenceable(136) %3, ptr noundef %13)
  %14 = load i8, ptr @UseProfiledLoopPredicate, align 1
  %15 = trunc i8 %14 to i1
  %16 = getelementptr inbounds i8, ptr %3, i64 64
  %17 = load ptr, ptr %16, align 8
  %.not = icmp ne ptr %17, null
  %or.cond.not = select i1 %15, i1 %.not, i1 false
  br i1 %or.cond.not, label %18, label %21

18:                                               ; preds = %2
  %19 = getelementptr inbounds i8, ptr %3, i64 56
  %20 = load ptr, ptr %19, align 8
  call void @_ZN14PhaseIdealLoop24get_assertion_predicatesEP4NodeR16Unique_Node_Listb(ptr noundef %20, ptr noundef nonnull align 8 dereferenceable(68) %1, i1 noundef zeroext true) #15
  br label %21

21:                                               ; preds = %18, %2
  %22 = load i8, ptr @UseLoopPredicate, align 1
  %23 = trunc i8 %22 to i1
  %24 = getelementptr inbounds i8, ptr %3, i64 104
  %25 = load ptr, ptr %24, align 8
  %.not10 = icmp ne ptr %25, null
  %or.cond15.not = select i1 %23, i1 %.not10, i1 false
  br i1 %or.cond15.not, label %26, label %29

26:                                               ; preds = %21
  %27 = getelementptr inbounds i8, ptr %3, i64 96
  %28 = load ptr, ptr %27, align 8
  call void @_ZN14PhaseIdealLoop24get_assertion_predicatesEP4NodeR16Unique_Node_Listb(ptr noundef %28, ptr noundef nonnull align 8 dereferenceable(68) %1, i1 noundef zeroext true) #15
  br label %29

29:                                               ; preds = %26, %21
  ret void
}